target datalayout = "e-m:e-p270:32:32-p271:32:32-p272:64:64-i64:64-i128:128-f80:128-n8:16:32:64-S128"
target triple = "x86_64-pc-linux-gnu"

%union.pthread_mutex_t = type { %struct.__pthread_mutex_s }
%struct.__pthread_mutex_s = type { i32, i32, i32, i32, i32, i16, i16, %struct.__pthread_internal_list }
%struct.__pthread_internal_list = type { ptr, ptr }
%struct.job_state_t = type { i64, i64, i32, i64 }
%struct.slurm_cred_t = type { i32, %union.pthread_rwlock_t, ptr, i32, i16, ptr, i64, ptr, i8 }
%union.pthread_rwlock_t = type { %struct.__pthread_rwlock_arch_t }
%struct.__pthread_rwlock_arch_t = type { i32, i32, i32, i32, i32, i32, i32, i32, i8, [7 x i8], i64, i32 }
%struct.slurm_cred_arg_t = type { %struct.slurm_step_id_msg, i32, i32, ptr, i16, ptr, ptr, ptr, i32, ptr, ptr, ptr, ptr, ptr, ptr, ptr, i16, i64, ptr, ptr, ptr, ptr, ptr, i32, i32, ptr, i32, i16, ptr, ptr, ptr, i16, ptr, i64, ptr, ptr, ptr, i16, ptr, ptr, ptr, ptr, i32, ptr, ptr }
%struct.slurm_step_id_msg = type { i64, i32, i32, i32 }

@.str.2 = private unnamed_addr constant [29 x i8] c"%s: pthread_mutex_lock(): %m\00", align 1
@.str.7 = private unnamed_addr constant [31 x i8] c"%s: pthread_mutex_unlock(): %m\00", align 1
@cred_job_list = internal global ptr null, align 8
@cred_cache_mutex = internal global %union.pthread_mutex_t zeroinitializer, align 8
@__func__.cred_handle_reissue = private unnamed_addr constant [20 x i8] c"cred_handle_reissue\00", align 1
@.str.11 = private unnamed_addr constant [35 x i8] c"reissued job credential for job %u\00", align 1

; Function Attrs: nounwind uwtable
define internal ptr @_find_job_state(i32 noundef %0) #0 {
  %2 = alloca i32, align 4
  store i32 %0, ptr %2, align 4
  %3 = load ptr, ptr @cred_job_list, align 8
  %4 = call ptr @list_find_first(ptr noundef %3, ptr noundef @_list_find_job_state, ptr noundef %2)
  ret ptr %4
}

; Function Attrs: nounwind uwtable
define dso_local void @cred_handle_reissue(ptr noundef %0, i1 noundef zeroext %1) #0 {
  %3 = alloca ptr, align 8
  %4 = alloca i8, align 1
  %5 = alloca ptr, align 8
  %6 = alloca i32, align 4
  %7 = alloca i32, align 4
  store ptr %0, ptr %3, align 8
  %8 = zext i1 %1 to i8
  store i8 %8, ptr %4, align 1
  call void @llvm.lifetime.start.p0(i64 8, ptr %5) #7
  %9 = load i8, ptr %4, align 1, !range !8, !noundef !9
  %10 = trunc i8 %9 to i1
  br i1 %10, label %22, label %11

11:                                               ; preds = %2
  br label %12

12:                                               ; preds = %11
  call void @llvm.lifetime.start.p0(i64 4, ptr %6) #7
  %13 = call i32 @pthread_mutex_lock(ptr noundef @cred_cache_mutex) #7
  store i32 %13, ptr %6, align 4
  %14 = load i32, ptr %6, align 4
  %15 = icmp ne i32 %14, 0
  br i1 %15, label %16, label %19

16:                                               ; preds = %12
  %17 = load i32, ptr %6, align 4
  %18 = call ptr @__errno_location() #8
  store i32 %17, ptr %18, align 4
  call void (ptr, ...) @fatal_abort(ptr noundef @.str.2, ptr noundef @__func__.cred_handle_reissue) #9
  unreachable

19:                                               ; preds = %12
  call void @llvm.lifetime.end.p0(i64 4, ptr %6) #7
  br label %20

20:                                               ; preds = %19
  br label %21

21:                                               ; preds = %20
  br label %22

22:                                               ; preds = %21, %2
  %23 = load ptr, ptr %3, align 8
  %24 = getelementptr inbounds nuw %struct.slurm_cred_t, ptr %23, i32 0, i32 5
  %25 = load ptr, ptr %24, align 8
  %26 = getelementptr inbounds nuw %struct.slurm_cred_arg_t, ptr %25, i32 0, i32 0
  %27 = getelementptr inbounds nuw %struct.slurm_step_id_msg, ptr %26, i32 0, i32 1
  %28 = load i32, ptr %27, align 8
  %29 = call ptr @_find_job_state(i32 noundef %28)
  store ptr %29, ptr %5, align 8
  %30 = load ptr, ptr %5, align 8
  %31 = icmp ne ptr %30, null
  br i1 %31, label %32, label %62

32:                                               ; preds = %22
  %33 = load ptr, ptr %5, align 8
  %34 = getelementptr inbounds nuw %struct.job_state_t, ptr %33, i32 0, i32 3
  %35 = load i64, ptr %34, align 8
  %36 = icmp ne i64 %35, 0
  br i1 %36, label %37, label %62

37:                                               ; preds = %32
  %38 = load ptr, ptr %3, align 8
  %39 = getelementptr inbounds nuw %struct.slurm_cred_t, ptr %38, i32 0, i32 6
  %40 = load i64, ptr %39, align 8
  %41 = load ptr, ptr %5, align 8
  %42 = getelementptr inbounds nuw %struct.job_state_t, ptr %41, i32 0, i32 3
  %43 = load i64, ptr %42, align 8
  %44 = icmp sgt i64 %40, %43
  br i1 %44, label %45, label %62

45:                                               ; preds = %37
  br label %46

46:                                               ; preds = %45
  br label %47

47:                                               ; preds = %46
  %48 = call i32 @get_log_level()
  %49 = icmp sge i32 %48, 3
  br i1 %49, label %50, label %54

50:                                               ; preds = %47
  %51 = load ptr, ptr %5, align 8
  %52 = getelementptr inbounds nuw %struct.job_state_t, ptr %51, i32 0, i32 2
  %53 = load i32, ptr %52, align 8
  call void (i32, ptr, ...) @log_var(i32 noundef 3, ptr noundef @.str.11, i32 noundef %53)
  br label %54

54:                                               ; preds = %50, %47
  br label %55

55:                                               ; preds = %54
  br label %56

56:                                               ; preds = %55
  br label %57

57:                                               ; preds = %56
  br label %58

58:                                               ; preds = %57
  %59 = load ptr, ptr @cred_job_list, align 8
  %60 = load ptr, ptr %5, align 8
  %61 = call i32 @list_delete_ptr(ptr noundef %59, ptr noundef %60)
  br label %62

62:                                               ; preds = %58, %37, %32, %22
  %63 = load i8, ptr %4, align 1, !range !8, !noundef !9
  %64 = trunc i8 %63 to i1
  br i1 %64, label %76, label %65

65:                                               ; preds = %62
  br label %66

66:                                               ; preds = %65
  call void @llvm.lifetime.start.p0(i64 4, ptr %7) #7
  %67 = call i32 @pthread_mutex_unlock(ptr noundef @cred_cache_mutex) #7
  store i32 %67, ptr %7, align 4
  %68 = load i32, ptr %7, align 4
  %69 = icmp ne i32 %68, 0
  br i1 %69, label %70, label %73

70:                                               ; preds = %66
  %71 = load i32, ptr %7, align 4
  %72 = call ptr @__errno_location() #8
  store i32 %71, ptr %72, align 4
  call void (ptr, ...) @fatal_abort(ptr noundef @.str.7, ptr noundef @__func__.cred_handle_reissue) #9
  unreachable

73:                                               ; preds = %66
  call void @llvm.lifetime.end.p0(i64 4, ptr %7) #7
  br label %74

74:                                               ; preds = %73
  br label %75

75:                                               ; preds = %74
  br label %76

76:                                               ; preds = %75, %62
  call void @llvm.lifetime.end.p0(i64 8, ptr %5) #7
  ret void
}