; Function Attrs: nounwind uwtable
define dso_local void @cred_handle_reissue(ptr noundef readonly captures(none) %0, i1 noundef zeroext %1) local_unnamed_addr #0 {
  %3 = alloca i32, align 4
  br i1 %1, label %8, label %4

4:                                                ; preds = %2
  %5 = tail call i32 @pthread_mutex_lock(ptr noundef nonnull @cred_cache_mutex) #10
  %.not = icmp eq i32 %5, 0
  br i1 %.not, label %8, label %6

6:                                                ; preds = %4
  %7 = tail call ptr @__errno_location() #11
  store i32 %5, ptr %7, align 4
  tail call void (ptr, ...) @fatal_abort(ptr noundef nonnull @.str.2, ptr noundef nonnull @__func__.cred_handle_reissue) #12
  unreachable

8:                                                ; preds = %4, %2
  %9 = getelementptr inbounds nuw i8, ptr %0, i64 80
  %10 = load ptr, ptr %9, align 8
  %11 = getelementptr inbounds nuw i8, ptr %10, i64 8
  %12 = load i32, ptr %11, align 8
  call void @llvm.lifetime.start.p0(i64 4, ptr nonnull %3)
  store i32 %12, ptr %3, align 4
  %13 = load ptr, ptr @cred_job_list, align 8
  %14 = call ptr @list_find_first(ptr noundef %13, ptr noundef nonnull @_list_find_job_state, ptr noundef nonnull %3) #10
  call void @llvm.lifetime.end.p0(i64 4, ptr nonnull %3)
  %.not15 = icmp eq ptr %14, null
  br i1 %.not15, label %31, label %15

15:                                               ; preds = %8
  %16 = getelementptr inbounds nuw i8, ptr %14, i64 24
  %17 = load i64, ptr %16, align 8
  %.not16 = icmp eq i64 %17, 0
  br i1 %.not16, label %31, label %18

18:                                               ; preds = %15
  %19 = getelementptr inbounds nuw i8, ptr %0, i64 88
  %20 = load i64, ptr %19, align 8
  %21 = icmp sgt i64 %20, %17
  br i1 %21, label %22, label %31

22:                                               ; preds = %18
  %23 = call i32 @get_log_level() #10
  %24 = icmp sgt i32 %23, 2
  br i1 %24, label %25, label %28

25:                                               ; preds = %22
  %26 = getelementptr inbounds nuw i8, ptr %14, i64 16
  %27 = load i32, ptr %26, align 8
  call void (i32, ptr, ...) @log_var(i32 noundef 3, ptr noundef nonnull @.str.11, i32 noundef %27) #10
  br label %28

28:                                               ; preds = %25, %22
  %29 = load ptr, ptr @cred_job_list, align 8
  %30 = call i32 @list_delete_ptr(ptr noundef %29, ptr noundef nonnull %14) #10
  br label %31

31:                                               ; preds = %28, %18, %15, %8
  br i1 %1, label %36, label %32

32:                                               ; preds = %31
  %33 = call i32 @pthread_mutex_unlock(ptr noundef nonnull @cred_cache_mutex) #10
  %.not17 = icmp eq i32 %33, 0
  br i1 %.not17, label %36, label %34

34:                                               ; preds = %32
  %35 = tail call ptr @__errno_location() #11
  store i32 %33, ptr %35, align 4
  call void (ptr, ...) @fatal_abort(ptr noundef nonnull @.str.7, ptr noundef nonnull @__func__.cred_handle_reissue) #12
  unreachable

36:                                               ; preds = %32, %31
  ret void
}